
../../../../test/resources/org/bridj/lib/darwin_universal/libdependsOnTest.dylib:
                 U __Z11forwardCallPFiiiEii
0000000000000f20 T __Z20addThatDependsOnTestii
                 U __Z8getAdderv
0000000000000f14 t __dyld_func_lookup
0000000000000f00 t dyld_stub_binding_helper

../../../../test/resources/org/bridj/lib/darwin_universal/libtest.dylib:
0000000000002ef0 t -[DelgHolder delegate]
0000000000002eb0 t -[DelgHolder outerAdd:to:]
0000000000002f10 t -[DelgHolder setDelegate:]
0000000000002f30 t -[DelgImpl add:to:]
000000000000324c s GCC_except_table0
000000000000326c s GCC_except_table1
00000000000031e4 s GCC_except_table124
0000000000003210 s GCC_except_table126
000000000000328c s GCC_except_table2
00000000000031c4 s GCC_except_table25
00000000000032ac s GCC_except_table3
0000000000000fc0 T _Java_org_bridj_PerfLib_testASinB
0000000000000f90 T _Java_org_bridj_PerfLib_testAddJNI
0000000000006698 S _OBJC_CLASS_$_DelgHolder
00000000000066e8 S _OBJC_CLASS_$_DelgImpl
                 U _OBJC_CLASS_$_NSObject
0000000000006a88 S _OBJC_IVAR_$_DelgHolder.delegate
0000000000006670 S _OBJC_METACLASS_$_DelgHolder
00000000000066c0 S _OBJC_METACLASS_$_DelgImpl
                 U _OBJC_METACLASS_$_NSObject
0000000000002460 t __GLOBAL__I_a
0000000000002520 t __GLOBAL__I_a
0000000000002e70 t __GLOBAL__I_a
                 U __Unwind_Resume
00000000000012b0 T __Z10createTestv
0000000000001610 T __Z10newWStringv
0000000000001600 T __Z10stringCStrPSs
00000000000013c0 T __Z10test_pvoidv
0000000000001870 T __Z11MyEnumToInt6MyEnum
00000000000014f0 T __Z11forwardCallPFiiiEii
0000000000001510 T __Z11getPtrAdderv
0000000000001860 T __Z11intToMyEnumi
0000000000000db0 T __Z11passVarArgsPcbz
00000000000011d0 T __Z11sizeOfCtestv
0000000000001290 T __Z11testIntEnumi5ETest
00000000000016d0 T __Z11wstringCStrPSbIwSt11char_traitsIwESaIwEE
00000000000015b0 T __Z12deleteStringPSs
00000000000014e0 T __Z12getAdder_rawv
00000000000015a0 T __Z12resizeStringPSsm
00000000000011e0 T __Z12sizeOfCtest2v
0000000000001e80 T __Z12sizeOf_stuffv
0000000000002870 T __Z12sizeofVectorIdEiv
0000000000002880 T __Z12sizeofVectorIfEiv
0000000000002850 T __Z12sizeofVectorIiEiv
0000000000002860 T __Z12sizeofVectorIxEiv
0000000000001270 T __Z12testEnumArgs5ETestS_
0000000000001280 T __Z12testVoidEnumv
0000000000001460 T __Z12test_fun_intv
0000000000001680 T __Z13deleteWStringPSbIwSt11char_traitsIwESaIwEE
00000000000014c0 T __Z13getAdder_longv
0000000000001590 T __Z13reserveStringPSsm
0000000000001670 T __Z13resizeWStringPSbIwSt11char_traitsIwESaIwEEm
0000000000001850 T __Z13sizeOfTimevalv
0000000000000f70 T __Z13testAddCLongsll
0000000000000f60 T __Z13testAddJLongsxx
0000000000001970 T __Z13test_add2_intii
0000000000001990 T __Z13test_add9_intiiiiiiiii
0000000000001430 T __Z13test_fun_voidv
0000000000001920 T __Z13test_incr_inti
0000000000001560 T __Z14appendToStringPSsPKc
0000000000001530 T __Z14forwardPtrCallPFPvS_S_ES_S_
00000000000014b0 T __Z14getAdder_pvoidv
0000000000001910 T __Z14getSomeWStringv
0000000000001660 T __Z14reserveWStringPSbIwSt11char_traitsIwESaIwEEm
0000000000001e70 T __Z14sizeOf_messagev
00000000000019b0 T __Z14test_add20_intiiiiiiiiiiiiiiiiiiii
0000000000001bc0 T __Z14test_add2_byteaa
0000000000001c70 T __Z14test_add2_chartt
0000000000001a30 T __Z14test_add2_longxx
0000000000001be0 T __Z14test_add9_byteaaaaaaaaa
0000000000001c90 T __Z14test_add9_charttttttttt
0000000000001a50 T __Z14test_add9_longxxxxxxxxx
0000000000001b70 T __Z14test_incr_bytea
0000000000001c20 T __Z14test_incr_chart
00000000000019e0 T __Z14test_incr_longx
0000000000001410 T __Z14test_int_floatf
0000000000001490 T __Z14test_int_shorts
0000000000001630 T __Z15appendToWStringPSbIwSt11char_traitsIwESaIwEEPKw
0000000000001520 T __Z15getPtrAdder_rawv
0000000000001900 T __Z15testIVirtualAddP8IVirtualii
0000000000001c00 T __Z15test_add20_byteaaaaaaaaaaaaaaaaaaaa
0000000000001cb0 T __Z15test_add20_chartttttttttttttttttttt
0000000000001a80 T __Z15test_add20_longxxxxxxxxxxxxxxxxxxxx
0000000000001d30 T __Z15test_add2_floatff
0000000000001b00 T __Z15test_add2_shortss
0000000000001d50 T __Z15test_add9_floatfffffffff
0000000000001b20 T __Z15test_add9_shortsssssssss
0000000000001840 T __Z15test_incr_clongl
0000000000001ce0 T __Z15test_incr_floatf
0000000000001ab0 T __Z15test_incr_shorts
0000000000001830 T __Z15test_incr_sizetm
0000000000001820 T __Z15test_incr_timetl
0000000000001400 T __Z15test_int_doublev
0000000000001e90 T __Z16sizeOf_containerv
0000000000001d70 T __Z16test_add20_floatffffffffffffffffffff
0000000000001b40 T __Z16test_add20_shortssssssssssssssssssss
0000000000001de0 T __Z16test_add2_doubledd
0000000000001e10 T __Z16test_add9_doubleddddddddd
0000000000001d90 T __Z16test_incr_doubled
00000000000013f0 T __Z16test_void_doublev
0000000000001260 T __Z17testEnumArgSecond5ETest
0000000000001250 T __Z17testEnumRetSecondv
0000000000001e40 T __Z17test_add20_doubledddddddddddddddddddd
0000000000001980 T __Z17test_add2_int_outiiPi
00000000000019a0 T __Z17test_add9_int_outiiiiiiiiiPi
0000000000001450 T __Z17test_fun_void_intv
0000000000001930 T __Z17test_incr_int_outiPi
00000000000016e0 T __Z18crashIllegalAccessv
00000000000019c0 T __Z18test_add20_int_outiiiiiiiiiiiiiiiiiiiiPi
0000000000001bd0 T __Z18test_add2_byte_outaaPa
0000000000001c80 T __Z18test_add2_char_outttPt
0000000000001a40 T __Z18test_add2_long_outxxPx
0000000000001bf0 T __Z18test_add9_byte_outaaaaaaaaaPa
0000000000001ca0 T __Z18test_add9_char_outtttttttttPt
0000000000001a60 T __Z18test_add9_long_outxxxxxxxxxPx
0000000000001470 T __Z18test_fun_int_floatv
0000000000001b80 T __Z18test_incr_byte_outaPa
0000000000001c30 T __Z18test_incr_char_outtPt
00000000000019f0 T __Z18test_incr_long_outxPx
0000000000001c10 T __Z19test_add20_byte_outaaaaaaaaaaaaaaaaaaaaPa
0000000000001cc0 T __Z19test_add20_char_outttttttttttttttttttttPt
0000000000001a90 T __Z19test_add20_long_outxxxxxxxxxxxxxxxxxxxxPx
0000000000001d40 T __Z19test_add2_float_outffPf
0000000000001b10 T __Z19test_add2_short_outssPs
0000000000001d60 T __Z19test_add9_float_outfffffffffPf
0000000000001b30 T __Z19test_add9_short_outsssssssssPs
0000000000001cf0 T __Z19test_incr_float_outfPf
0000000000001ac0 T __Z19test_incr_short_outsPs
0000000000001760 T __Z19throwNewMyExceptionPKc
0000000000001d80 T __Z20test_add20_float_outffffffffffffffffffffPf
0000000000001b50 T __Z20test_add20_short_outssssssssssssssssssssPs
0000000000001df0 T __Z20test_add2_double_outddPd
0000000000001e20 T __Z20test_add9_double_outdddddddddPd
0000000000001da0 T __Z20test_incr_double_outdPd
0000000000001e50 T __Z21test_add20_double_outddddddddddddddddddddPd
0000000000001940 T __Z21test_callback_int_intPFiiEi
0000000000001440 T __Z21test_fun_void__doubled
0000000000001200 T __Z22testIndirectVirtualAddP5Ctestii
0000000000001b90 T __Z23test_callback_byte_bytePFaaEa
0000000000001c40 T __Z23test_callback_char_charPFttEt
0000000000001a00 T __Z23test_callback_long_longPFxxEx
00000000000016f0 T __Z23throwMyExceptionByValuePKc
0000000000001d10 T __Z25test_callback_float_floatPFffEf
0000000000001ad0 T __Z25test_callback_short_shortPFssEs
0000000000001480 T __Z26test_fun_int_float__doubled
0000000000001dc0 T __Z27test_callback_double_doublePFddEd
0000000000001950 T __Z30test_callback_int_int_asDoublePFiiEi
0000000000001ba0 T __Z32test_callback_byte_byte_asDoublePFaaEa
0000000000001c50 T __Z32test_callback_char_char_asDoublePFttEt
0000000000001a10 T __Z32test_callback_long_long_asDoublePFxxEx
0000000000001d20 T __Z34test_callback_float_float_asDoublePFffEf
0000000000001ae0 T __Z34test_callback_short_short_asDoublePFssEs
0000000000001dd0 T __Z36test_callback_double_double_asDoublePFddEd
00000000000014a0 T __Z3addii
00000000000024b0 T __Z3sum6S_int2
00000000000024d0 T __Z3sum8S_jlong4
00000000000024f0 T __Z3sum9S_jlong10
00000000000024a0 T __Z4incr5S_int
0000000000002560 T __Z4totov
0000000000001500 T __Z7addPtrsPvS_
00000000000014d0 T __Z8getAdderv
0000000000001240 T __Z8testEnum5ETest
00000000000013e0 T __Z8test_intv
00000000000017f0 T __Z8throwInti
0000000000001540 T __Z9newStringv
00000000000026d0 T __Z9newVectorIdESt6vectorIT_SaIS1_EEi
0000000000002790 T __Z9newVectorIfESt6vectorIT_SaIS1_EEi
0000000000002570 T __Z9newVectorIiESt6vectorIT_SaIS1_EEi
0000000000002610 T __Z9newVectorIxESt6vectorIT_SaIS1_EEi
00000000000013d0 T __Z9test_pintv
0000000000001420 T __Z9test_voidv
0000000000006aa0 b __ZGVZN6Ctest28toStringEvE1s
0000000000001f60 T __ZN11Constructed6sizeOfEv
0000000000001f00 T __ZN11ConstructedC1EPKcS1_PS1_
0000000000001ea0 T __ZN11ConstructedC1EifcPPKc
0000000000001f30 T __ZN11ConstructedC2EPKcS1_PS1_
0000000000001ed0 T __ZN11ConstructedC2EifcPPKc
00000000000023f0 T __ZN11MyExceptionD0Ev
0000000000002380 T __ZN11MyExceptionD1Ev
0000000000002120 T __ZN24InvisibleSourcesTemplateILi10ESsE10createSomeEv
0000000000002160 T __ZN24InvisibleSourcesTemplateILi10ESsE10deleteSomeEPSs
0000000000002080 T __ZN24InvisibleSourcesTemplateILi10ESsEC1Ei
00000000000020d0 T __ZN24InvisibleSourcesTemplateILi10ESsEC2Ei
0000000000002010 T __ZN24InvisibleSourcesTemplateILi10EiE10createSomeEv
0000000000002040 T __ZN24InvisibleSourcesTemplateILi10EiE10deleteSomeEPi
0000000000001f70 T __ZN24InvisibleSourcesTemplateILi10EiEC1Ei
0000000000001fc0 T __ZN24InvisibleSourcesTemplateILi10EiEC2Ei
00000000000010c0 T __ZN5Ctest11getInstanceEv
00000000000012a0 T __ZN5Ctest11static_voidEv
0000000000001220 T __ZN5Ctest14testAddStdCallEPvii
00000000000011f0 T __ZN5Ctest14testVirtualAddEii
0000000000001230 T __ZN5Ctest21testVirtualAddStdCallEPvii
0000000000001100 T __ZN5Ctest6getIntEv
00000000000010f0 T __ZN5Ctest7getEnumEv
0000000000001210 T __ZN5Ctest7testAddEii
0000000000001060 T __ZN5CtestC1Ei
0000000000001020 T __ZN5CtestC1Ev
0000000000001080 T __ZN5CtestC2Ei
0000000000001040 T __ZN5CtestC2Ev
00000000000010a0 T __ZN5CtestD1Ev
00000000000010b0 T __ZN5CtestD2Ev
0000000000002230 T __ZN5Temp1IdE4tempEd
0000000000002200 T __ZN5Temp1IdED0Ev
0000000000002210 T __ZN5Temp1IdED1Ev
0000000000002220 T __ZN5Temp1IdED2Ev
00000000000021f0 T __ZN5Temp1IiE4tempEi
00000000000021c0 T __ZN5Temp1IiED0Ev
00000000000021d0 T __ZN5Temp1IiED1Ev
00000000000021e0 T __ZN5Temp1IiED2Ev
00000000000022f0 T __ZN5Temp2IddE4tempEdd
00000000000022c0 T __ZN5Temp2IddED0Ev
00000000000022d0 T __ZN5Temp2IddED1Ev
00000000000022e0 T __ZN5Temp2IddED2Ev
0000000000002270 T __ZN5Temp2IiiE4tempEii
0000000000002240 T __ZN5Temp2IiiED0Ev
0000000000002250 T __ZN5Temp2IiiED1Ev
0000000000002260 T __ZN5Temp2IiiED2Ev
00000000000022b0 T __ZN5Temp2IisE4tempEis
0000000000002280 T __ZN5Temp2IisED0Ev
0000000000002290 T __ZN5Temp2IisED1Ev
00000000000022a0 T __ZN5Temp2IisED2Ev
0000000000002370 T __ZN5TempVIdLi33EE4tempEd
0000000000002340 T __ZN5TempVIdLi33EED0Ev
0000000000002350 T __ZN5TempVIdLi33EED1Ev
0000000000002360 T __ZN5TempVIdLi33EED2Ev
0000000000002330 T __ZN5TempVIiLi66EE4tempEi
0000000000002300 T __ZN5TempVIiLi66EED0Ev
0000000000002310 T __ZN5TempVIiLi66EED1Ev
0000000000002320 T __ZN5TempVIiLi66EED2Ev
00000000000013a0 T __ZN6Ctest214testVirtualAddEii
00000000000011a0 T __ZN6Ctest216getCtestInstanceEv
0000000000001390 T __ZN6Ctest218setDestructedStateEi
00000000000013b0 T __ZN6Ctest27testAddEii
0000000000001380 T __ZN6Ctest28setStateEPi
0000000000001110 T __ZN6Ctest28toStringEv
00000000000012e0 T __ZN6Ctest2C1Ev
0000000000001310 T __ZN6Ctest2C2Ev
0000000000001340 T __ZN6Ctest2D1Ev
0000000000001360 T __ZN6Ctest2D2Ev
0000000000001880 T __ZN6Module3addEii
00000000000023e0 T __ZN6ModuleD0Ev
00000000000023d0 T __ZN6ModuleD1Ev
00000000000018e0 T __ZN7AModule3addEii
00000000000018f0 T __ZN7AModule8subtractEii
0000000000001890 T __ZN7AModuleC1Ev
00000000000018a0 T __ZN7AModuleC2Ev
00000000000018b0 T __ZN7AModuleD0Ev
00000000000018c0 T __ZN7AModuleD1Ev
00000000000018d0 T __ZN7AModuleD2Ev
0000000000002450 T __ZNK11MyException4whatEv
                 U __ZNSbIwSt11char_traitsIwESaIwEE4_Rep10_M_destroyERKS1_
                 U __ZNSbIwSt11char_traitsIwESaIwEE4_Rep20_S_empty_rep_storageE
                 U __ZNSbIwSt11char_traitsIwESaIwEE6appendEPKwm
                 U __ZNSbIwSt11char_traitsIwESaIwEE6resizeEmw
                 U __ZNSbIwSt11char_traitsIwESaIwEE7reserveEm
                 U __ZNSolsEi
                 U __ZNSs4_Rep10_M_destroyERKSaIcE
                 U __ZNSs4_Rep20_S_empty_rep_storageE
                 U __ZNSs6appendEPKcm
                 U __ZNSs6resizeEmc
                 U __ZNSs7reserveEm
                 U __ZNSsC1EPKcRKSaIcE
                 U __ZNSsD1Ev
0000000000002a10 T __ZNSt6vectorIdSaIdEE13_M_insert_auxEN9__gnu_cxx17__normal_iteratorIPdS1_EERKd
0000000000002890 T __ZNSt6vectorIfSaIfEE13_M_insert_auxEN9__gnu_cxx17__normal_iteratorIPfS1_EERKf
0000000000002d00 T __ZNSt6vectorIiSaIiEE13_M_insert_auxEN9__gnu_cxx17__normal_iteratorIPiS1_EERKi
0000000000002b90 T __ZNSt6vectorIxSaIxEE13_M_insert_auxEN9__gnu_cxx17__normal_iteratorIPxS1_EERKx
                 U __ZNSt8ios_base4InitC1Ev
                 U __ZNSt8ios_base4InitD1Ev
                 U __ZNSt9exceptionD2Ev
                 U __ZSt16__ostream_insertIcSt11char_traitsIcEERSt13basic_ostreamIT_T0_ES6_PKS3_l
                 U __ZSt17__throw_bad_allocv
                 U __ZSt20__throw_length_errorPKc
                 U __ZSt4cout
0000000000006aa8 b __ZStL8__ioinit
0000000000006aa9 b __ZStL8__ioinit
0000000000006a90 b __ZStL8__ioinit
0000000000006810 D __ZTI11MyException
0000000000006780 S __ZTI5Ctest
00000000000068a0 D __ZTI5Temp1IdE
0000000000006870 D __ZTI5Temp1IiE
0000000000006930 D __ZTI5Temp2IddE
00000000000068d0 D __ZTI5Temp2IiiE
0000000000006900 D __ZTI5Temp2IisE
0000000000006990 D __ZTI5TempVIdLi33EE
0000000000006960 D __ZTI5TempVIiLi66EE
0000000000006790 S __ZTI6Ctest2
00000000000067f8 S __ZTI6Module
00000000000067b0 S __ZTI7AModule
00000000000069a0 D __ZTI7IModule
0000000000006830 D __ZTIP11MyException
                 U __ZTISt9exception
                 U __ZTIi
0000000000003300 S __ZTS11MyException
00000000000033a8 S __ZTS5Ctest
0000000000003327 S __ZTS5Temp1IdE
000000000000331d S __ZTS5Temp1IiE
0000000000003347 S __ZTS5Temp2IddE
0000000000003331 S __ZTS5Temp2IiiE
000000000000333c S __ZTS5Temp2IisE
0000000000003361 S __ZTS5TempVIdLi33EE
0000000000003352 S __ZTS5TempVIiLi66EE
00000000000033af S __ZTS6Ctest2
00000000000033c0 S __ZTS6Module
00000000000033b7 S __ZTS7AModule
0000000000003370 S __ZTS7IModule
000000000000330e S __ZTSP11MyException
00000000000069b0 D __ZTV11MyException
0000000000006710 S __ZTV5Ctest
0000000000006880 D __ZTV5Temp1IdE
0000000000006850 D __ZTV5Temp1IiE
0000000000006910 D __ZTV5Temp2IddE
00000000000068b0 D __ZTV5Temp2IiiE
00000000000068e0 D __ZTV5Temp2IisE
0000000000006970 D __ZTV5TempVIdLi33EE
0000000000006940 D __ZTV5TempVIiLi66EE
0000000000006730 S __ZTV6Ctest2
00000000000067d0 S __ZTV6Module
0000000000006750 S __ZTV7AModule
                 U __ZTVN10__cxxabiv117__class_type_infoE
                 U __ZTVN10__cxxabiv119__pointer_type_infoE
                 U __ZTVN10__cxxabiv120__si_class_type_infoE
0000000000006a98 b __ZZN6Ctest28toStringEvE1s
                 U __ZdlPv
                 U __Znam
                 U __Znwm
                 U ___cxa_allocate_exception
                 U ___cxa_atexit
                 U ___cxa_free_exception
                 U ___cxa_guard_abort
                 U ___cxa_guard_acquire
                 U ___cxa_guard_release
                 U ___cxa_throw
                 U ___gxx_personality_v0
0000000000000d84 t __dyld_func_lookup
                 U __objc_empty_cache
                 U __objc_empty_vtable
0000000000002f40 T _forwardBlockCallIntIntInt
                 U _memcpy
                 U _memmove
00000000000069d8 D _newIntVector
0000000000006aac S _ntest
                 U _objc_msgSend_fixup
0000000000000f80 T _otherFunc
                 U _sin
0000000000000da0 T _sinInt
00000000000069e0 D _sizeofIntVector
                 U _strlen
0000000000000ff0 T _testASinB
0000000000000fa0 T _testAddDyncall
0000000000000fb0 T _testAddJNA
0000000000000f30 T _testInPlaceSquare
0000000000000e90 T _testSum
0000000000000f00 T _testSumInt
0000000000000eb0 T _testSumi
0000000000000ed0 T _testSumll
0000000000000d90 T _voidTest
                 U _wcslen
0000000000000d70 t dyld_stub_binding_helper
