
../../../../test/resources/org/bridj/lib/linux_armhf/libdependsOnTest.so:
00008624 a _DYNAMIC
0000872c a _GLOBAL_OFFSET_TABLE_
         w _Jv_RegisterClasses
         U _Z11forwardCallPFiiiEii
000005dc T _Z20addThatDependsOnTestii
         U _Z8getAdderv
00000614 r __FRAME_END__
00008620 d __JCR_END__
00008620 d __JCR_LIST__
         U __aeabi_unwind_cpp_pr0@@GCC_3.5
0000875c A __bss_end__
00008758 A __bss_start
00008758 A __bss_start__
         w __cxa_finalize@@GLIBC_2.4
00000534 t __do_global_dtors_aux
0000861c t __do_global_dtors_aux_fini_array_entry
00008754 d __dso_handle
0000875c A __end__
00008618 t __frame_dummy_init_array_entry
         w __gmon_start__
0000875c A _bss_end__
00008758 A _edata
0000875c A _end
000005fc T _fini
000004c0 T _init
00000510 t call_gmon_start
00008758 b completed.5637
00000598 t frame_dummy

../../../../test/resources/org/bridj/lib/linux_armhf/libtest.so:
00005a40 T Java_org_bridj_PerfLib_testASinB
00005a28 T Java_org_bridj_PerfLib_testAddJNI
00008018 a _DYNAMIC
00008118 a _GLOBAL_OFFSET_TABLE_
000056f8 t _GLOBAL__sub_I__Z4incr5S_int
00005728 t _GLOBAL__sub_I_newIntVector
000056c8 t _GLOBAL__sub_I_ntest
         w _Jv_RegisterClasses
00005c38 T _Z10createTestv
00005ea0 T _Z10newWStringv
00005e98 T _Z10stringCStrPSs
00005cd8 T _Z10test_pvoidv
0000607c T _Z11MyEnumToInt6MyEnum
00005d6c T _Z11forwardCallPFiiiEii
00005d84 T _Z11getPtrAdderv
00006078 T _Z11intToMyEnumi
000058b0 T _Z11passVarArgsPcbz
00005bbc T _Z11sizeOfCtestv
00005c2c T _Z11testIntEnumi5ETest
00005f84 T _Z11wstringCStrPSbIwSt11char_traitsIwESaIwEE
00005e04 T _Z12deleteStringPSs
00005d60 T _Z12getAdder_rawv
00005dfc T _Z12resizeStringPSsj
00005bc4 T _Z12sizeOfCtest2v
00006508 T _Z12sizeOf_stuffv
00006bac W _Z12sizeofVectorIdEiv
00006bb4 W _Z12sizeofVectorIfEiv
00006b9c W _Z12sizeofVectorIiEiv
00006ba4 W _Z12sizeofVectorIxEiv
00005c14 T _Z12testEnumArgs5ETestS_
00005c24 T _Z12testVoidEnumv
00005d20 T _Z12test_fun_intv
00005ef0 T _Z13deleteWStringPSbIwSt11char_traitsIwESaIwEE
00005d48 T _Z13getAdder_longv
00005df8 T _Z13reserveStringPSsj
00005ee8 T _Z13resizeWStringPSbIwSt11char_traitsIwESaIwEEj
00006070 T _Z13sizeOfTimevalv
00005a1c T _Z13testAddCLongsll
00005a10 T _Z13testAddJLongsxx
000060f4 T _Z13test_add2_intii
00006108 T _Z13test_add9_intiiiiiiiii
00005d08 T _Z13test_fun_voidv
000060b0 T _Z13test_incr_inti
00005dd0 T _Z14appendToStringPSsPKc
00005d9c T _Z14forwardPtrCallPFPvS_S_ES_S_
00005d40 T _Z14getAdder_pvoidv
000060a4 T _Z14getSomeWStringv
00005ee4 T _Z14reserveWStringPSbIwSt11char_traitsIwESaIwEEj
000064fc T _Z14sizeOf_messagev
00006120 T _Z14test_add20_intiiiiiiiiiiiiiiiiiiii
000062e0 T _Z14test_add2_byteaa
0000636c T _Z14test_add2_chartt
000061ac T _Z14test_add2_longxx
000062f4 T _Z14test_add9_byteaaaaaaaaa
00006380 T _Z14test_add9_charttttttttt
000061cc T _Z14test_add9_longxxxxxxxxx
00006298 T _Z14test_incr_bytea
00006324 T _Z14test_incr_chart
00006138 T _Z14test_incr_longx
00005cfc T _Z14test_int_floatf
00005d38 T _Z14test_int_shorts
00005ebc T _Z15appendToWStringPSbIwSt11char_traitsIwESaIwEEPKw
00005d90 T _Z15getPtrAdder_rawv
00006090 T _Z15testIVirtualAddP8IVirtualii
0000630c T _Z15test_add20_byteaaaaaaaaaaaaaaaaaaaa
00006398 T _Z15test_add20_chartttttttttttttttttttt
000061ec T _Z15test_add20_longxxxxxxxxxxxxxxxxxxxx
000063f0 T _Z15test_add2_floatff
00006254 T _Z15test_add2_shortss
0000640c T _Z15test_add9_floatfffffffff
00006268 T _Z15test_add9_shortsssssssss
00006068 T _Z15test_incr_clongl
000063b0 T _Z15test_incr_floatf
0000620c T _Z15test_incr_shorts
00006060 T _Z15test_incr_sizetj
00006058 T _Z15test_incr_timetl
00005cf4 T _Z15test_int_doublev
00006510 T _Z16sizeOf_containerv
00006428 T _Z16test_add20_floatffffffffffffffffffff
00006280 T _Z16test_add20_shortssssssssssssssssssss
00006488 T _Z16test_add2_doubledd
000064ac T _Z16test_add9_doubleddddddddd
00006444 T _Z16test_incr_doubled
00005cf0 T _Z16test_void_doublev
00005c04 T _Z17testEnumArgSecond5ETest
00005bfc T _Z17testEnumRetSecondv
000064d4 T _Z17test_add20_doubledddddddddddddddddddd
000060fc T _Z17test_add2_int_outiiPi
00006110 T _Z17test_add9_int_outiiiiiiiiiPi
00005d18 T _Z17test_fun_void_intv
000060b8 T _Z17test_incr_int_outiPi
00005f8c T _Z18crashIllegalAccessv
00006128 T _Z18test_add20_int_outiiiiiiiiiiiiiiiiiiiiPi
000062e8 T _Z18test_add2_byte_outaaPa
00006374 T _Z18test_add2_char_outttPt
000061b8 T _Z18test_add2_long_outxxPx
000062fc T _Z18test_add9_byte_outaaaaaaaaaPa
00006388 T _Z18test_add9_char_outtttttttttPt
000061d8 T _Z18test_add9_long_outxxxxxxxxxPx
00005d28 T _Z18test_fun_int_floatv
000062a4 T _Z18test_incr_byte_outaPa
00006330 T _Z18test_incr_char_outtPt
00006154 T _Z18test_incr_long_outxPx
00006314 T _Z19test_add20_byte_outaaaaaaaaaaaaaaaaaaaaPa
000063a0 T _Z19test_add20_char_outttttttttttttttttttttPt
000061f8 T _Z19test_add20_long_outxxxxxxxxxxxxxxxxxxxxPx
000063fc T _Z19test_add2_float_outffPf
0000625c T _Z19test_add2_short_outssPs
00006418 T _Z19test_add9_float_outfffffffffPf
00006270 T _Z19test_add9_short_outsssssssssPs
000063c0 T _Z19test_incr_float_outfPf
00006218 T _Z19test_incr_short_outsPs
00005fdc T _Z19throwNewMyExceptionPKc
00006434 T _Z20test_add20_float_outffffffffffffffffffffPf
00006288 T _Z20test_add20_short_outssssssssssssssssssssPs
00006498 T _Z20test_add2_double_outddPd
000064c0 T _Z20test_add9_double_outdddddddddPd
00006458 T _Z20test_incr_double_outdPd
000064e8 T _Z21test_add20_double_outddddddddddddddddddddPd
000060c4 T _Z21test_callback_int_intPFiiEi
00005d10 T _Z21test_fun_void__doubled
00005bcc T _Z22testIndirectVirtualAddP5Ctestii
000062b0 T _Z23test_callback_byte_bytePFaaEa
0000633c T _Z23test_callback_char_charPFttEt
00006174 T _Z23test_callback_long_longPFxxEx
00005f9c T _Z23throwMyExceptionByValuePKc
000063d4 T _Z25test_callback_float_floatPFffEf
00006224 T _Z25test_callback_short_shortPFssEs
00005d30 T _Z26test_fun_int_float__doubled
00006470 T _Z27test_callback_double_doublePFddEd
000060d8 T _Z30test_callback_int_int_asDoublePFiiEi
000062c4 T _Z32test_callback_byte_byte_asDoublePFaaEa
00006350 T _Z32test_callback_char_char_asDoublePFttEt
0000618c T _Z32test_callback_long_long_asDoublePFxxEx
000063e0 T _Z34test_callback_float_float_asDoublePFffEf
00006238 T _Z34test_callback_short_short_asDoublePFssEs
0000647c T _Z36test_callback_double_double_asDoublePFddEd
00005848 T _Z3addii
00006abc T _Z3sum6S_int2
00006ad8 T _Z3sum8S_jlong4
00006b14 T _Z3sum9S_jlong10
00006ab4 T _Z4incr5S_int
00006b98 T _Z4totov
00005850 T _Z7addPtrsPvS_
00005d54 T _Z8getAdderv
00005bf8 T _Z8testEnum5ETest
00005ce8 T _Z8test_intv
00006034 T _Z8throwInti
00005db4 T _Z9newStringv
000070dc W _Z9newVectorIdESt6vectorIT_SaIS1_EEi
000072c4 W _Z9newVectorIfESt6vectorIT_SaIS1_EEi
00006d0c W _Z9newVectorIiESt6vectorIT_SaIS1_EEi
00006eec W _Z9newVectorIxESt6vectorIT_SaIS1_EEi
00005ce0 T _Z9test_pintv
00005d04 T _Z9test_voidv
000081d0 b _ZGVZN6Ctest28toStringEvE1s
0000657c T _ZN11Constructed6sizeOfEv
00006548 T _ZN11ConstructedC1EPKcS1_PS1_
00006518 T _ZN11ConstructedC1EifcPPKc
00006548 T _ZN11ConstructedC2EPKcS1_PS1_
00006518 T _ZN11ConstructedC2EifcPPKc
00006888 W _ZN11MyExceptionC1EPKc
00006888 W _ZN11MyExceptionC2EPKc
00006740 W _ZN11MyExceptionD0Ev
000067e8 W _ZN11MyExceptionD1Ev
000067e8 W _ZN11MyExceptionD2Ev
000069b4 W _ZN24InvisibleSourcesTemplateILi10ESsE10createSomeEv
000069e8 W _ZN24InvisibleSourcesTemplateILi10ESsE10deleteSomeEPSs
00006968 W _ZN24InvisibleSourcesTemplateILi10ESsEC1Ei
00006968 W _ZN24InvisibleSourcesTemplateILi10ESsEC2Ei
0000690c W _ZN24InvisibleSourcesTemplateILi10EiE10createSomeEv
0000693c W _ZN24InvisibleSourcesTemplateILi10EiE10deleteSomeEPi
000068c0 W _ZN24InvisibleSourcesTemplateILi10EiEC1Ei
000068c0 W _ZN24InvisibleSourcesTemplateILi10EiEC2Ei
00005ad4 T _ZN5Ctest11getInstanceEv
00005c34 T _ZN5Ctest11static_voidEv
00005be8 T _ZN5Ctest14testAddStdCallEPvii
00005828 T _ZN5Ctest14testVirtualAddEii
00005830 T _ZN5Ctest21testVirtualAddStdCallEPvii
00005b08 T _ZN5Ctest6getIntEv
00005b00 T _ZN5Ctest7getEnumEv
00005be0 T _ZN5Ctest7testAddEii
00005aa8 T _ZN5CtestC1Ei
00005a88 T _ZN5CtestC1Ev
00005aa8 T _ZN5CtestC2Ei
00005a88 T _ZN5CtestC2Ev
00005ac4 T _ZN5CtestD1Ev
00005ac4 T _ZN5CtestD2Ev
00006a9c W _ZN5Temp1IdE4tempEd
000066c0 W _ZN5Temp1IdED0Ev
000065c0 W _ZN5Temp1IdED1Ev
000065c0 W _ZN5Temp1IdED2Ev
00006a98 W _ZN5Temp1IiE4tempEi
000066e0 W _ZN5Temp1IiED0Ev
000065b0 W _ZN5Temp1IiED1Ev
000065b0 W _ZN5Temp1IiED2Ev
00006aa8 W _ZN5Temp2IddE4tempEdd
00006660 W _ZN5Temp2IddED0Ev
000065f0 W _ZN5Temp2IddED1Ev
000065f0 W _ZN5Temp2IddED2Ev
00006aa0 W _ZN5Temp2IiiE4tempEii
000066a0 W _ZN5Temp2IiiED0Ev
000065d0 W _ZN5Temp2IiiED1Ev
000065d0 W _ZN5Temp2IiiED2Ev
00006aa4 W _ZN5Temp2IisE4tempEis
00006680 W _ZN5Temp2IisED0Ev
000065e0 W _ZN5Temp2IisED1Ev
000065e0 W _ZN5Temp2IisED2Ev
00006ab0 W _ZN5TempVIdLi33EE4tempEd
00006620 W _ZN5TempVIdLi33EED0Ev
00006610 W _ZN5TempVIdLi33EED1Ev
00006610 W _ZN5TempVIdLi33EED2Ev
00006aac W _ZN5TempVIiLi66EE4tempEi
00006640 W _ZN5TempVIiLi66EED0Ev
00006600 W _ZN5TempVIiLi66EED1Ev
00006600 W _ZN5TempVIiLi66EED2Ev
00005840 T _ZN6Ctest214testVirtualAddEii
00005b90 T _ZN6Ctest216getCtestInstanceEv
00005cc8 T _ZN6Ctest218setDestructedStateEi
00005cd0 T _ZN6Ctest27testAddEii
00005cc0 T _ZN6Ctest28setStateEPi
00005b10 T _ZN6Ctest28toStringEv
00005c64 T _ZN6Ctest2C1Ev
00005c64 T _ZN6Ctest2C2Ev
00005c90 T _ZN6Ctest2D1Ev
00005c90 T _ZN6Ctest2D2Ev
00005858 T _ZN6Module3addEii
00006720 W _ZN6ModuleD0Ev
00006588 W _ZN6ModuleD1Ev
00006588 W _ZN6ModuleD2Ev
00005870 T _ZN7AModule3addEii
00005878 T _ZN7AModule8subtractEii
00006080 T _ZN7AModuleC1Ev
00006080 T _ZN7AModuleC2Ev
00005880 T _ZN7AModuleD0Ev
00005860 T _ZN7AModuleD1Ev
00005860 T _ZN7AModuleD2Ev
00006700 W _ZN7IModuleD0Ev
00006598 W _ZN7IModuleD1Ev
00006598 W _ZN7IModuleD2Ev
000065a8 W _ZNK11MyException4whatEv
         U _ZNSbIwSt11char_traitsIwESaIwEE4_Rep10_M_destroyERKS1_@@GLIBCXX_3.4
         U _ZNSbIwSt11char_traitsIwESaIwEE4_Rep20_S_empty_rep_storageE@@GLIBCXX_3.4
         U _ZNSbIwSt11char_traitsIwESaIwEE6appendEPKwj@@GLIBCXX_3.4
         U _ZNSbIwSt11char_traitsIwESaIwEE6resizeEjw@@GLIBCXX_3.4
         U _ZNSbIwSt11char_traitsIwESaIwEE7reserveEj@@GLIBCXX_3.4
         U _ZNSolsEi@@GLIBCXX_3.4
         U _ZNSs4_Rep10_M_destroyERKSaIcE@@GLIBCXX_3.4
         U _ZNSs4_Rep20_S_empty_rep_storageE@@GLIBCXX_3.4
         U _ZNSs6appendEPKcj@@GLIBCXX_3.4
         U _ZNSs6resizeEjc@@GLIBCXX_3.4
         U _ZNSs7reserveEj@@GLIBCXX_3.4
         U _ZNSsC1EPKcRKSaIcE@@GLIBCXX_3.4
         U _ZNSsD1Ev@@GLIBCXX_3.4
00006f94 W _ZNSt6vectorIdSaIdEE13_M_insert_auxEN9__gnu_cxx17__normal_iteratorIPdS1_EERKd
00007178 W _ZNSt6vectorIfSaIfEE13_M_insert_auxEN9__gnu_cxx17__normal_iteratorIPfS1_EERKf
00006bbc W _ZNSt6vectorIiSaIiEE13_M_insert_auxEN9__gnu_cxx17__normal_iteratorIPiS1_EERKi
00006da0 W _ZNSt6vectorIxSaIxEE13_M_insert_auxEN9__gnu_cxx17__normal_iteratorIPxS1_EERKx
         U _ZNSt8ios_base4InitC1Ev@@GLIBCXX_3.4
         U _ZNSt8ios_base4InitD1Ev@@GLIBCXX_3.4
         U _ZNSt9exceptionD2Ev@@GLIBCXX_3.4
         U _ZSt16__ostream_insertIcSt11char_traitsIcEERSt13basic_ostreamIT_T0_ES6_PKS3_i@@GLIBCXX_3.4.9
         U _ZSt4cout@@GLIBCXX_3.4
000081d8 b _ZStL8__ioinit
000081e0 b _ZStL8__ioinit
000081e4 b _ZStL8__ioinit
00007810 V _ZTI11MyException
000078f0 R _ZTI5Ctest
00007954 R _ZTI5Temp1IdE
00007940 R _ZTI5Temp1IiE
00007990 R _ZTI5Temp2IddE
00007968 R _ZTI5Temp2IiiE
0000797c R _ZTI5Temp2IisE
000079c0 R _ZTI5TempVIdLi33EE
000079a8 R _ZTI5TempVIiLi66EE
00007900 R _ZTI6Ctest2
00007914 R _ZTI6Module
00007928 R _ZTI7AModule
00007860 V _ZTI7IModule
00007838 V _ZTIP11MyException
         U _ZTISt9exception@@GLIBCXX_3.4
         U _ZTIi@@CXXABI_1.3
00007868 V _ZTS11MyException
000078e8 R _ZTS5Ctest
00007948 R _ZTS5Temp1IdE
00007934 R _ZTS5Temp1IiE
00007984 R _ZTS5Temp2IddE
0000795c R _ZTS5Temp2IiiE
00007970 R _ZTS5Temp2IisE
000079b0 R _ZTS5TempVIdLi33EE
00007998 R _ZTS5TempVIiLi66EE
000078f8 R _ZTS6Ctest2
0000790c R _ZTS6Module
0000791c R _ZTS7AModule
00007888 V _ZTS7IModule
00007878 V _ZTSP11MyException
00007820 V _ZTV11MyException
000078c8 R _ZTV5Ctest
000077b0 V _ZTV5Temp1IdE
000077a0 V _ZTV5Temp1IiE
000077e0 V _ZTV5Temp2IddE
000077c0 V _ZTV5Temp2IiiE
000077d0 V _ZTV5Temp2IisE
00007800 V _ZTV5TempVIdLi33EE
000077f0 V _ZTV5TempVIiLi66EE
000078d8 R _ZTV6Ctest2
00007898 R _ZTV6Module
000078b0 R _ZTV7AModule
00007848 V _ZTV7IModule
         U _ZTVN10__cxxabiv117__class_type_infoE@@CXXABI_1.3
         U _ZTVN10__cxxabiv119__pointer_type_infoE@@CXXABI_1.3
         U _ZTVN10__cxxabiv120__si_class_type_infoE@@CXXABI_1.3
000081d4 b _ZZN6Ctest28toStringEvE1s
         U _ZdlPv@@GLIBCXX_3.4
         U _Znaj@@GLIBCXX_3.4
         U _Znwj@@GLIBCXX_3.4
00007e3c r __FRAME_END__
00008014 d __JCR_END__
00008014 d __JCR_LIST__
0000736c t __adddf3
         U __aeabi_atexit@@CXXABI_ARM_1.3.3
00007718 t __aeabi_d2lz
00007750 t __aeabi_d2ulz
0000736c t __aeabi_dadd
00007360 t __aeabi_drsub
00007368 t __aeabi_dsub
00007664 t __aeabi_f2d
0000763c t __aeabi_i2d
000076b8 t __aeabi_l2d
00007618 t __aeabi_ui2d
000076a4 t __aeabi_ul2d
         U __aeabi_unwind_cpp_pr0@@GCC_3.5
         U __aeabi_unwind_cpp_pr1@@GCC_3.5
000081e8 A __bss_end__
000081cc A __bss_start
000081cc A __bss_start__
         U __cxa_allocate_exception@@CXXABI_1.3
         U __cxa_end_cleanup@@CXXABI_1.3
         w __cxa_finalize@@GLIBC_2.4
         U __cxa_free_exception@@CXXABI_1.3
         U __cxa_guard_abort@@CXXABI_1.3
         U __cxa_guard_acquire@@CXXABI_1.3
         U __cxa_guard_release@@CXXABI_1.3
         U __cxa_pure_virtual@@CXXABI_1.3
         U __cxa_throw@@CXXABI_1.3
0000577c t __do_global_dtors_aux
00008010 t __do_global_dtors_aux_fini_array_entry
000081c0 d __dso_handle
000081e8 A __end__
00007664 t __extendsfdf2
00007718 t __fixdfdi
00007750 t __fixunsdfdi
000076b8 t __floatdidf
0000763c t __floatsidf
000076a4 t __floatundidf
00007618 t __floatunsidf
00008000 t __frame_dummy_init_array_entry
         w __gmon_start__
         U __gxx_personality_v0@@CXXABI_1.3
00007368 t __subdf3
000081e8 A _bss_end__
000081cc A _edata
000081e8 A _end
00007798 T _fini
000054f8 T _init
00005758 t call_gmon_start
000081cc b completed.5637
000057e0 t frame_dummy
         U memmove@@GLIBC_2.4
000081c8 D newIntVector
000081dc B ntest
00005a24 T otherFunc
         w pthread_cancel
         U sin
000058a4 T sinInt
000081c4 D sizeofIntVector
         U strlen@@GLIBC_2.4
00005a64 T testASinB
00005a30 T testAddDyncall
00005a38 T testAddJNA
000059e8 T testInPlaceSquare
000058f0 T testSum
000059a8 T testSumInt
00005928 T testSumi
00005960 T testSumll
000058a0 T voidTest
         U wcslen@@GLIBC_2.4
